target datalayout = "e-m:e-p270:32:32-p271:32:32-p272:64:64-i64:64-i128:128-f80:128-n8:16:32:64-S128"
target triple = "x86_64-pc-linux-gnu"

@.str.9 = private unnamed_addr constant [8 x i8] c"unknown\00", align 1
@.str.38 = private unnamed_addr constant [6 x i8] c"error\00", align 1
@.str.39 = private unnamed_addr constant [5 x i8] c"warn\00", align 1
@.str.40 = private unnamed_addr constant [5 x i8] c"info\00", align 1
@.str.41 = private unnamed_addr constant [6 x i8] c"debug\00", align 1
@.str.42 = private unnamed_addr constant [8 x i8] c"verbose\00", align 1
@.str.43 = private unnamed_addr constant [6 x i8] c"fatal\00", align 1

; Function Attrs: mustprogress nounwind uwtable
define ptr @YGLogLevelToString(i32 noundef %0) #0 {
  %2 = alloca ptr, align 8
  %3 = alloca i32, align 4
  store i32 %0, ptr %3, align 4, !tbaa !28
  %4 = load i32, ptr %3, align 4, !tbaa !28
  switch i32 %4, label %11 [
    i32 0, label %5
    i32 1, label %6
    i32 2, label %7
    i32 3, label %8
    i32 4, label %9
    i32 5, label %10
  ]

5:                                                ; preds = %1
  store ptr @.str.38, ptr %2, align 8
  br label %12

6:                                                ; preds = %1
  store ptr @.str.39, ptr %2, align 8
  br label %12

7:                                                ; preds = %1
  store ptr @.str.40, ptr %2, align 8
  br label %12

8:                                                ; preds = %1
  store ptr @.str.41, ptr %2, align 8
  br label %12

9:                                                ; preds = %1
  store ptr @.str.42, ptr %2, align 8
  br label %12

10:                                               ; preds = %1
  store ptr @.str.43, ptr %2, align 8
  br label %12

11:                                               ; preds = %1
  store ptr @.str.9, ptr %2, align 8
  br label %12

12:                                               ; preds = %11, %10, %9, %8, %7, %6, %5
  %13 = load ptr, ptr %2, align 8
  ret ptr %13
}